; Function Attrs: mustprogress nofree nounwind willreturn memory(read, inaccessiblemem: none) uwtable
define noundef zeroext i1 @_ZNK3net12QuicServerIdeqERKS0_(ptr noundef nonnull readonly align 8 captures(none) dereferenceable(44) %0, ptr noundef nonnull readonly align 8 captures(none) dereferenceable(44) %1) local_unnamed_addr #4 align 2 {
  %3 = getelementptr inbounds nuw i8, ptr %0, i64 40
  %4 = load i32, ptr %3, align 8, !tbaa !3
  %5 = getelementptr inbounds nuw i8, ptr %1, i64 40
  %6 = load i32, ptr %5, align 8, !tbaa !3
  %7 = icmp eq i32 %4, %6
  br i1 %7, label %8, label %27

8:                                                ; preds = %2
  %9 = getelementptr inbounds nuw i8, ptr %0, i64 8
  %10 = load i64, ptr %9, align 8, !tbaa !17
  %11 = getelementptr inbounds nuw i8, ptr %1, i64 8
  %12 = load i64, ptr %11, align 8, !tbaa !17
  %13 = icmp eq i64 %10, %12
  br i1 %13, label %14, label %_ZNK3net12HostPortPair6EqualsERKS0_.exit

14:                                               ; preds = %8
  %15 = icmp eq i64 %10, 0
  br i1 %15, label %_ZNK3net12HostPortPair6EqualsERKS0_.exit, label %16

16:                                               ; preds = %14
  %17 = load ptr, ptr %1, align 8, !tbaa !16
  %18 = load ptr, ptr %0, align 8, !tbaa !16
  %bcmp.i.i = tail call i32 @bcmp(ptr %18, ptr %17, i64 %10)
  %19 = icmp eq i32 %bcmp.i.i, 0
  br label %_ZNK3net12HostPortPair6EqualsERKS0_.exit

_ZNK3net12HostPortPair6EqualsERKS0_.exit:         ; preds = %8, %14, %16
  %20 = phi i1 [ false, %8 ], [ %19, %16 ], [ true, %14 ]
  %21 = getelementptr inbounds nuw i8, ptr %0, i64 32
  %22 = load i16, ptr %21, align 8
  %23 = getelementptr inbounds nuw i8, ptr %1, i64 32
  %24 = load i16, ptr %23, align 8
  %25 = icmp eq i16 %22, %24
  %26 = select i1 %20, i1 %25, i1 false
  br label %27

27:                                               ; preds = %_ZNK3net12HostPortPair6EqualsERKS0_.exit, %2
  %28 = phi i1 [ false, %2 ], [ %26, %_ZNK3net12HostPortPair6EqualsERKS0_.exit ]
  ret i1 %28
}